ARM GAS  C:\Users\oggih\AppData\Local\Temp\ccHW8X5v.s 			page 1


   1              		.syntax unified
   2              		.cpu cortex-m0
   3              		.fpu softvfp
   4              		.eabi_attribute 20, 1
   5              		.eabi_attribute 21, 1
   6              		.eabi_attribute 23, 3
   7              		.eabi_attribute 24, 1
   8              		.eabi_attribute 25, 1
   9              		.eabi_attribute 26, 1
  10              		.eabi_attribute 30, 1
  11              		.eabi_attribute 34, 0
  12              		.eabi_attribute 18, 4
  13              		.thumb
  14              		.syntax unified
  15              		.file	"main.c"
  16              		.text
  17              	.Ltext0:
  18              		.cfi_sections	.debug_frame
  19              		.section	.text.update_lcd,"ax",%progbits
  20              		.align	2
  21              		.global	update_lcd
  22              		.code	16
  23              		.thumb_func
  24              		.type	update_lcd, %function
  25              	update_lcd:
  26              	.LFB33:
  27              		.file 1 "main.c"
   1:main.c        **** #include "project.h"
   2:main.c        **** #include "stdio.h"
   3:main.c        **** int ms_count, seconds, minutes, hours = 0;
   4:main.c        **** int miliseconds=0;
   5:main.c        **** char lcd_string[16];
   6:main.c        **** 
   7:main.c        **** void update_lcd()
   8:main.c        **** {
  28              		.loc 1 8 0
  29              		.cfi_startproc
  30              		@ args = 0, pretend = 0, frame = 0
  31              		@ frame_needed = 0, uses_anonymous_args = 0
  32 0000 10B5     		push	{r4, lr}
  33              		.cfi_def_cfa_offset 8
  34              		.cfi_offset 4, -8
  35              		.cfi_offset 14, -4
  36 0002 82B0     		sub	sp, sp, #8
  37              		.cfi_def_cfa_offset 16
   9:main.c        ****     LCD_ClearDisplay();
  38              		.loc 1 9 0
  39 0004 0120     		movs	r0, #1
  40 0006 FFF7FEFF 		bl	LCD_WriteControl
  41              	.LVL0:
  10:main.c        ****     //sprintf(lcd_string, "%02u:%02u:%02u",minutes, seconds,ms_count/100);
  11:main.c        ****     sprintf(lcd_string, "%02u:%02u:%02u",minutes, seconds,miliseconds);
  42              		.loc 1 11 0
  43 000a 0A4B     		ldr	r3, .L2
  44 000c 1B68     		ldr	r3, [r3]
  45 000e 0A4A     		ldr	r2, .L2+4
  46 0010 1268     		ldr	r2, [r2]
ARM GAS  C:\Users\oggih\AppData\Local\Temp\ccHW8X5v.s 			page 2


  47 0012 0A4C     		ldr	r4, .L2+8
  48 0014 0A49     		ldr	r1, .L2+12
  49 0016 0968     		ldr	r1, [r1]
  50 0018 0091     		str	r1, [sp]
  51 001a 0A49     		ldr	r1, .L2+16
  52 001c 2000     		movs	r0, r4
  53 001e FFF7FEFF 		bl	sprintf
  54              	.LVL1:
  12:main.c        ****     LCD_Position(0, 0);
  55              		.loc 1 12 0
  56 0022 0021     		movs	r1, #0
  57 0024 0020     		movs	r0, #0
  58 0026 FFF7FEFF 		bl	LCD_Position
  59              	.LVL2:
  13:main.c        ****     LCD_PrintString(lcd_string);
  60              		.loc 1 13 0
  61 002a 2000     		movs	r0, r4
  62 002c FFF7FEFF 		bl	LCD_PrintString
  63              	.LVL3:
  14:main.c        **** }
  64              		.loc 1 14 0
  65 0030 02B0     		add	sp, sp, #8
  66              		@ sp needed
  67 0032 10BD     		pop	{r4, pc}
  68              	.L3:
  69              		.align	2
  70              	.L2:
  71 0034 00000000 		.word	seconds
  72 0038 00000000 		.word	minutes
  73 003c 00000000 		.word	lcd_string
  74 0040 00000000 		.word	.LANCHOR0
  75 0044 00000000 		.word	.LC2
  76              		.cfi_endproc
  77              	.LFE33:
  78              		.size	update_lcd, .-update_lcd
  79              		.global	__aeabi_idiv
  80              		.section	.text.ISR,"ax",%progbits
  81              		.align	2
  82              		.global	ISR
  83              		.code	16
  84              		.thumb_func
  85              		.type	ISR, %function
  86              	ISR:
  87              	.LFB34:
  15:main.c        **** 
  16:main.c        **** CY_ISR(ISR)
  17:main.c        **** {
  88              		.loc 1 17 0
  89              		.cfi_startproc
  90              		@ args = 0, pretend = 0, frame = 0
  91              		@ frame_needed = 0, uses_anonymous_args = 0
  92 0000 10B5     		push	{r4, lr}
  93              		.cfi_def_cfa_offset 8
  94              		.cfi_offset 4, -8
  95              		.cfi_offset 14, -4
  18:main.c        ****      ms_count++;
  96              		.loc 1 18 0
ARM GAS  C:\Users\oggih\AppData\Local\Temp\ccHW8X5v.s 			page 3


  97 0002 134A     		ldr	r2, .L6
  98 0004 1368     		ldr	r3, [r2]
  99 0006 0133     		adds	r3, r3, #1
 100 0008 1360     		str	r3, [r2]
  19:main.c        ****     if (ms_count >= 1000)
 101              		.loc 1 19 0
 102 000a 124A     		ldr	r2, .L6+4
 103 000c 9342     		cmp	r3, r2
 104 000e 14DD     		ble	.L5
  20:main.c        ****     {
  21:main.c        ****         seconds++;
 105              		.loc 1 21 0
 106 0010 114A     		ldr	r2, .L6+8
 107 0012 1368     		ldr	r3, [r2]
 108 0014 0133     		adds	r3, r3, #1
 109 0016 1360     		str	r3, [r2]
  22:main.c        ****         ms_count = 0;
 110              		.loc 1 22 0
 111 0018 0021     		movs	r1, #0
 112 001a 0D4A     		ldr	r2, .L6
 113 001c 1160     		str	r1, [r2]
  23:main.c        ****         if (seconds >= 60)
 114              		.loc 1 23 0
 115 001e 3B2B     		cmp	r3, #59
 116 0020 0BDD     		ble	.L5
  24:main.c        ****         {
  25:main.c        ****             seconds = 0;
 117              		.loc 1 25 0
 118 0022 0022     		movs	r2, #0
 119 0024 0C4B     		ldr	r3, .L6+8
 120 0026 1A60     		str	r2, [r3]
  26:main.c        ****             minutes++;
 121              		.loc 1 26 0
 122 0028 0C4A     		ldr	r2, .L6+12
 123 002a 1368     		ldr	r3, [r2]
 124 002c 0133     		adds	r3, r3, #1
 125 002e 1360     		str	r3, [r2]
  27:main.c        ****             if (minutes >= 60)
 126              		.loc 1 27 0
 127 0030 3B2B     		cmp	r3, #59
 128 0032 02DD     		ble	.L5
  28:main.c        ****             {
  29:main.c        ****                 minutes = 0;
 129              		.loc 1 29 0
 130 0034 0022     		movs	r2, #0
 131 0036 094B     		ldr	r3, .L6+12
 132 0038 1A60     		str	r2, [r3]
 133              	.L5:
  30:main.c        ****             }
  31:main.c        ****         }
  32:main.c        ****     }
  33:main.c        ****      miliseconds=ms_count/100;
 134              		.loc 1 33 0
 135 003a 054B     		ldr	r3, .L6
 136 003c 1868     		ldr	r0, [r3]
 137 003e 6421     		movs	r1, #100
 138 0040 FFF7FEFF 		bl	__aeabi_idiv
ARM GAS  C:\Users\oggih\AppData\Local\Temp\ccHW8X5v.s 			page 4


 139              	.LVL4:
 140 0044 064B     		ldr	r3, .L6+16
 141 0046 1860     		str	r0, [r3]
  34:main.c        ****      update_lcd();
 142              		.loc 1 34 0
 143 0048 FFF7FEFF 		bl	update_lcd
 144              	.LVL5:
  35:main.c        ****    
  36:main.c        **** }
 145              		.loc 1 36 0
 146              		@ sp needed
 147 004c 10BD     		pop	{r4, pc}
 148              	.L7:
 149 004e C046     		.align	2
 150              	.L6:
 151 0050 00000000 		.word	ms_count
 152 0054 E7030000 		.word	999
 153 0058 00000000 		.word	seconds
 154 005c 00000000 		.word	minutes
 155 0060 00000000 		.word	.LANCHOR0
 156              		.cfi_endproc
 157              	.LFE34:
 158              		.size	ISR, .-ISR
 159              		.section	.text.main,"ax",%progbits
 160              		.align	2
 161              		.global	main
 162              		.code	16
 163              		.thumb_func
 164              		.type	main, %function
 165              	main:
 166              	.LFB35:
  37:main.c        **** 
  38:main.c        **** int main(void)
  39:main.c        **** {
 167              		.loc 1 39 0
 168              		.cfi_startproc
 169              		@ Volatile: function does not return.
 170              		@ args = 0, pretend = 0, frame = 0
 171              		@ frame_needed = 0, uses_anonymous_args = 0
 172 0000 10B5     		push	{r4, lr}
 173              		.cfi_def_cfa_offset 8
 174              		.cfi_offset 4, -8
 175              		.cfi_offset 14, -4
  40:main.c        ****     CyGlobalIntEnable; /* Enable global interrupts. */
 176              		.loc 1 40 0
 177              		.syntax divided
 178              	@ 40 "main.c" 1
 179 0002 62B6     		CPSIE   i
 180              	@ 0 "" 2
  41:main.c        **** 
  42:main.c        ****     /* Place your initialization/startup code here (e.g. MyInst_Start()) */
  43:main.c        ****     LCD_Start();
 181              		.loc 1 43 0
 182              		.thumb
 183              		.syntax unified
 184 0004 FFF7FEFF 		bl	LCD_Start
 185              	.LVL6:
ARM GAS  C:\Users\oggih\AppData\Local\Temp\ccHW8X5v.s 			page 5


  44:main.c        ****     Timer_Start();
 186              		.loc 1 44 0
 187 0008 FFF7FEFF 		bl	Timer_Start
 188              	.LVL7:
  45:main.c        ****     isr_StartEx(ISR);
 189              		.loc 1 45 0
 190 000c 0148     		ldr	r0, .L10
 191 000e FFF7FEFF 		bl	isr_StartEx
 192              	.LVL8:
 193              	.L9:
 194 0012 FEE7     		b	.L9
 195              	.L11:
 196              		.align	2
 197              	.L10:
 198 0014 00000000 		.word	ISR
 199              		.cfi_endproc
 200              	.LFE35:
 201              		.size	main, .-main
 202              		.comm	lcd_string,16,4
 203              		.global	miliseconds
 204              		.global	hours
 205              		.comm	minutes,4,4
 206              		.comm	seconds,4,4
 207              		.comm	ms_count,4,4
 208              		.section	.rodata.str1.4,"aMS",%progbits,1
 209              		.align	2
 210              	.LC2:
 211 0000 25303275 		.ascii	"%02u:%02u:%02u\000"
 211      3A253032 
 211      753A2530 
 211      327500
 212              		.bss
 213              		.align	2
 214              		.set	.LANCHOR0,. + 0
 215              		.type	miliseconds, %object
 216              		.size	miliseconds, 4
 217              	miliseconds:
 218 0000 00000000 		.space	4
 219              		.type	hours, %object
 220              		.size	hours, 4
 221              	hours:
 222 0004 00000000 		.space	4
 223              		.text
 224              	.Letext0:
 225              		.file 2 "Generated_Source\\PSoC4/LCD.h"
 226              		.file 3 "c:\\program files (x86)\\cypress\\psoc creator\\4.4\\psoc creator\\import\\gnu\\arm\\5.4.
 227              		.file 4 "Generated_Source\\PSoC4/Timer.h"
 228              		.file 5 "Generated_Source\\PSoC4/isr.h"