ARM GAS  C:\Users\oggih\AppData\Local\Temp\cc3VLzYO.s 			page 1


   1              		.syntax unified
   2              		.cpu cortex-m0
   3              		.fpu softvfp
   4              		.eabi_attribute 20, 1
   5              		.eabi_attribute 21, 1
   6              		.eabi_attribute 23, 3
   7              		.eabi_attribute 24, 1
   8              		.eabi_attribute 25, 1
   9              		.eabi_attribute 26, 1
  10              		.eabi_attribute 30, 1
  11              		.eabi_attribute 34, 0
  12              		.eabi_attribute 18, 4
  13              		.thumb
  14              		.syntax unified
  15              		.file	"main.c"
  16              		.text
  17              	.Ltext0:
  18              		.cfi_sections	.debug_frame
  19              		.section	.text.timer_isr_handler,"ax",%progbits
  20              		.align	2
  21              		.global	timer_isr_handler
  22              		.code	16
  23              		.thumb_func
  24              		.type	timer_isr_handler, %function
  25              	timer_isr_handler:
  26              	.LFB32:
  27              		.file 1 "main.c"
   1:main.c        **** #include <project.h>
   2:main.c        **** 
   3:main.c        **** #define BUFFER_SIZE 256
   4:main.c        **** #define TIMER_PERIOD_US 100
   5:main.c        **** 
   6:main.c        **** volatile uint8_t waveformBuffer[BUFFER_SIZE];
   7:main.c        **** volatile uint16_t bufferIndex = 0;
   8:main.c        **** 
   9:main.c        **** CY_ISR_PROTO(timer_isr_handler);
  10:main.c        **** 
  11:main.c        **** CY_ISR(timer_isr_handler)
  12:main.c        **** {
  28              		.loc 1 12 0
  29              		.cfi_startproc
  30              		@ args = 0, pretend = 0, frame = 0
  31              		@ frame_needed = 0, uses_anonymous_args = 0
  32 0000 10B5     		push	{r4, lr}
  33              		.cfi_def_cfa_offset 8
  34              		.cfi_offset 4, -8
  35              		.cfi_offset 14, -4
  13:main.c        ****     IDAC_SetValue(waveformBuffer[bufferIndex]); // –í—Å—Ç–∞–Ω–æ–≤–ª–µ–Ω–Ω—è –∑–Ω–∞—á–µ–Ω–Ω—è IDAC –
  36              		.loc 1 13 0
  37 0002 0A4C     		ldr	r4, .L3
  38 0004 2388     		ldrh	r3, [r4]
  39 0006 9BB2     		uxth	r3, r3
  40 0008 094A     		ldr	r2, .L3+4
  41 000a D05C     		ldrb	r0, [r2, r3]
  42 000c C0B2     		uxtb	r0, r0
  43 000e FFF7FEFF 		bl	IDAC_SetValue
  44              	.LVL0:
ARM GAS  C:\Users\oggih\AppData\Local\Temp\cc3VLzYO.s 			page 2


  14:main.c        ****     bufferIndex++;
  45              		.loc 1 14 0
  46 0012 2388     		ldrh	r3, [r4]
  47 0014 0133     		adds	r3, r3, #1
  48 0016 9BB2     		uxth	r3, r3
  49 0018 2380     		strh	r3, [r4]
  15:main.c        ****     
  16:main.c        ****     if (bufferIndex >= BUFFER_SIZE)
  50              		.loc 1 16 0
  51 001a 2388     		ldrh	r3, [r4]
  52 001c 9BB2     		uxth	r3, r3
  53 001e FF2B     		cmp	r3, #255
  54 0020 02D9     		bls	.L1
  17:main.c        ****         bufferIndex = 0;
  55              		.loc 1 17 0
  56 0022 0022     		movs	r2, #0
  57 0024 014B     		ldr	r3, .L3
  58 0026 1A80     		strh	r2, [r3]
  59              	.L1:
  18:main.c        ****     
  19:main.c        **** }
  60              		.loc 1 19 0
  61              		@ sp needed
  62 0028 10BD     		pop	{r4, pc}
  63              	.L4:
  64 002a C046     		.align	2
  65              	.L3:
  66 002c 00000000 		.word	.LANCHOR0
  67 0030 00000000 		.word	waveformBuffer
  68              		.cfi_endproc
  69              	.LFE32:
  70              		.size	timer_isr_handler, .-timer_isr_handler
  71              		.section	.text.main,"ax",%progbits
  72              		.align	2
  73              		.global	main
  74              		.code	16
  75              		.thumb_func
  76              		.type	main, %function
  77              	main:
  78              	.LFB33:
  20:main.c        **** 
  21:main.c        **** int main(void)
  22:main.c        **** {
  79              		.loc 1 22 0
  80              		.cfi_startproc
  81              		@ Volatile: function does not return.
  82              		@ args = 0, pretend = 0, frame = 0
  83              		@ frame_needed = 0, uses_anonymous_args = 0
  84 0000 10B5     		push	{r4, lr}
  85              		.cfi_def_cfa_offset 8
  86              		.cfi_offset 4, -8
  87              		.cfi_offset 14, -4
  23:main.c        ****     CyGlobalIntEnable; // –í–∫–ª—é—á–µ–Ω–Ω—è –≥–ª–æ–±–∞–ª—å–Ω–∏—Ö –ø–µ—Ä–µ—Ä–∏–≤–∞–Ω—å
  88              		.loc 1 23 0
  89              		.syntax divided
  90              	@ 23 "main.c" 1
  91 0002 62B6     		CPSIE   i
ARM GAS  C:\Users\oggih\AppData\Local\Temp\cc3VLzYO.s 			page 3


  92              	@ 0 "" 2
  24:main.c        ****     
  25:main.c        ****     Timer_Start(); // –ó–∞–ø—É—Å–∫ —Ç–∞–π–º–µ—Ä–∞
  93              		.loc 1 25 0
  94              		.thumb
  95              		.syntax unified
  96 0004 FFF7FEFF 		bl	Timer_Start
  97              	.LVL1:
  26:main.c        ****     Timer_WritePeriod(TIMER_PERIOD_US); // –í—Å—Ç–∞–Ω–æ–≤–ª–µ–Ω–Ω—è –ø–µ—Ä—ñ–æ–¥—É —Ç–∞–π–º–µ—Ä–∞ –
  98              		.loc 1 26 0
  99 0008 6420     		movs	r0, #100
 100 000a FFF7FEFF 		bl	Timer_WritePeriod
 101              	.LVL2:
  27:main.c        ****     
  28:main.c        ****     isr_StartEx(timer_isr_handler); // –†–µ—î—Å—Ç—Ä–∞—Ü—ñ—è —Ñ—É–Ω–∫—Ü—ñ—ó –ø–µ—Ä–µ—Ä–∏–≤–∞–Ω–Ω—è (
 102              		.loc 1 28 0
 103 000e 0948     		ldr	r0, .L7
 104 0010 FFF7FEFF 		bl	isr_StartEx
 105              	.LVL3:
  29:main.c        **** 
  30:main.c        ****     IDAC_Start(); // –ó–∞–ø—É—Å–∫ IDAC
 106              		.loc 1 30 0
 107 0014 FFF7FEFF 		bl	IDAC_Start
 108              	.LVL4:
 109              	.L6:
  31:main.c        ****     
  32:main.c        ****     for(;;)
  33:main.c        ****     {
  34:main.c        ****          Pin_Write(1);
 110              		.loc 1 34 0 discriminator 1
 111 0018 0120     		movs	r0, #1
 112 001a FFF7FEFF 		bl	Pin_Write
 113              	.LVL5:
  35:main.c        ****         CyDelayUs(1);
 114              		.loc 1 35 0 discriminator 1
 115 001e 0120     		movs	r0, #1
 116 0020 FFF7FEFF 		bl	CyDelayUs
 117              	.LVL6:
  36:main.c        ****         Pin_Write(0);
 118              		.loc 1 36 0 discriminator 1
 119 0024 0020     		movs	r0, #0
 120 0026 FFF7FEFF 		bl	Pin_Write
 121              	.LVL7:
  37:main.c        ****         CyDelayUs(1);
 122              		.loc 1 37 0 discriminator 1
 123 002a 0120     		movs	r0, #1
 124 002c FFF7FEFF 		bl	CyDelayUs
 125              	.LVL8:
 126 0030 F2E7     		b	.L6
 127              	.L8:
 128 0032 C046     		.align	2
 129              	.L7:
 130 0034 00000000 		.word	timer_isr_handler
 131              		.cfi_endproc
 132              	.LFE33:
 133              		.size	main, .-main
 134              		.global	bufferIndex
ARM GAS  C:\Users\oggih\AppData\Local\Temp\cc3VLzYO.s 			page 4


 135              		.comm	waveformBuffer,256,4
 136              		.bss
 137              		.align	1
 138              		.set	.LANCHOR0,. + 0
 139              		.type	bufferIndex, %object
 140              		.size	bufferIndex, 2
 141              	bufferIndex:
 142 0000 0000     		.space	2
 143              		.text
 144              	.Letext0:
 145              		.file 2 "c:\\program files (x86)\\cypress\\psoc creator\\4.4\\psoc creator\\import\\gnu\\arm\\5.4.
 146              		.file 3 "c:\\program files (x86)\\cypress\\psoc creator\\4.4\\psoc creator\\import\\gnu\\arm\\5.4.
 147              		.file 4 "Generated_Source\\PSoC4/IDAC.h"
 148              		.file 5 "Generated_Source\\PSoC4/Timer.h"
 149              		.file 6 "Generated_Source\\PSoC4/isr.h"
 150              		.file 7 "Generated_Source\\PSoC4/Pin.h"
 151              		.file 8 "Generated_Source\\PSoC4/CyLib.h"