ARM GAS  C:\Users\oggih\AppData\Local\Temp\cccVRH60.s 			page 1


   1              		.syntax unified
   2              		.cpu cortex-m0
   3              		.fpu softvfp
   4              		.eabi_attribute 20, 1
   5              		.eabi_attribute 21, 1
   6              		.eabi_attribute 23, 3
   7              		.eabi_attribute 24, 1
   8              		.eabi_attribute 25, 1
   9              		.eabi_attribute 26, 1
  10              		.eabi_attribute 30, 1
  11              		.eabi_attribute 34, 0
  12              		.eabi_attribute 18, 4
  13              		.thumb
  14              		.syntax unified
  15              		.file	"main.c"
  16              		.text
  17              	.Ltext0:
  18              		.cfi_sections	.debug_frame
  19              		.section	.text.LCD_ShiftString,"ax",%progbits
  20              		.align	2
  21              		.global	LCD_ShiftString
  22              		.code	16
  23              		.thumb_func
  24              		.type	LCD_ShiftString, %function
  25              	LCD_ShiftString:
  26              	.LFB34:
  27              		.file 1 "main.c"
   1:main.c        **** #include "project.h"
   2:main.c        **** #include <stdio.h>
   3:main.c        **** #include <stdlib.h>
   4:main.c        **** #include <string.h>
   5:main.c        **** #include <locale.h>
   6:main.c        **** 
   7:main.c        **** #define LCD_NAME_ROW     (0u) // –†—è–¥–æ–∫ –¥–ª—è –≤–∏–≤–µ–¥–µ–Ω–Ω—è —ñ–º–µ–Ω—ñ
   8:main.c        **** #define LCD_SURNAME_ROW  (1u) // –†—è–¥–æ–∫ –¥–ª—è –≤–∏–≤–µ–¥–µ–Ω–Ω—è –ø—Ä—ñ–∑–≤–∏—â–∞
   9:main.c        **** #define LCD_SHIFT_DELAY  (500u) // –ó–∞—Ç—Ä–∏–º–∫–∞ –º—ñ–∂ –∑–º—ñ—â–µ–Ω–Ω—è–º–∏
  10:main.c        **** 
  11:main.c        **** void LCD_ShiftString(char* str, uint8_t shiftDirection);
  12:main.c        **** 
  13:main.c        **** char name[]    = "Volodimir"; // –Ü–º'—è —Å—Ç—É–¥–µ–Ω—Ç–∞
  14:main.c        **** char surname[] = "Petrashek"; // –ü—Ä—ñ–∑–≤–∏—â–µ —Å—Ç—É–¥–µ–Ω—Ç–∞
  15:main.c        **** 
  16:main.c        **** 
  17:main.c        **** int main(void)
  18:main.c        **** {
  19:main.c        ****     CyGlobalIntEnable; /* –í–∫–ª—é—á–µ–Ω–Ω—è –≥–ª–æ–±–∞–ª—å–Ω–∏—Ö –ø–µ—Ä–µ—Ä–∏–≤–∞–Ω—å. */
  20:main.c        **** 
  21:main.c        ****     setlocale(LC_CTYPE, "ukr");
  22:main.c        ****     
  23:main.c        ****     LCD_Char_1_Start(); // –Ü–Ω—ñ—Ü—ñ–∞–ª—ñ–∑–∞—Ü—ñ—è –¥–∏—Å–ø–ª–µ—é LCD
  24:main.c        **** 
  25:main.c        ****     for(;;)
  26:main.c        **** {
  27:main.c        ****     LCD_Char_1_Position(0,0);
  28:main.c        ****     LCD_Char_1_PrintString(name);
  29:main.c        ****     LCD_Char_1_Position(1,0);
  30:main.c        ****     LCD_Char_1_PrintString(surname);
ARM GAS  C:\Users\oggih\AppData\Local\Temp\cccVRH60.s 			page 2


  31:main.c        ****     LCD_ShiftString(name,1);
  32:main.c        **** }
  33:main.c        **** }
  34:main.c        **** 
  35:main.c        **** void LCD_ShiftString(char* str, uint8_t shiftDirection)
  36:main.c        **** {
  28              		.loc 1 36 0
  29              		.cfi_startproc
  30              		@ args = 0, pretend = 0, frame = 0
  31              		@ frame_needed = 0, uses_anonymous_args = 0
  32              	.LVL0:
  33 0000 F8B5     		push	{r3, r4, r5, r6, r7, lr}
  34              		.cfi_def_cfa_offset 24
  35              		.cfi_offset 3, -24
  36              		.cfi_offset 4, -20
  37              		.cfi_offset 5, -16
  38              		.cfi_offset 6, -12
  39              		.cfi_offset 7, -8
  40              		.cfi_offset 14, -4
  41 0002 0500     		movs	r5, r0
  42 0004 0F00     		movs	r7, r1
  37:main.c        ****     uint8_t strLength = strlen(str);
  43              		.loc 1 37 0
  44 0006 FFF7FEFF 		bl	strlen
  45              	.LVL1:
  46 000a C6B2     		uxtb	r6, r0
  47              	.LVL2:
  38:main.c        ****     uint8_t shiftCount = 0;
  39:main.c        **** 
  40:main.c        ****     if (strLength > 16)
  48              		.loc 1 40 0
  49 000c 102E     		cmp	r6, #16
  50 000e 36D9     		bls	.L9
  41:main.c        ****     {
  42:main.c        ****         // –Ø–∫—â–æ —Ä—è–¥–æ–∫ –∑–∞–Ω–∞–¥—Ç–æ –¥–æ–≤–≥–∏–π –¥–ª—è –≤–∏–≤–µ–¥–µ–Ω–Ω—è –Ω–∞ –æ–¥–Ω–æ–
  43:main.c        ****         LCD_Char_1_ClearDisplay();
  51              		.loc 1 43 0
  52 0010 0120     		movs	r0, #1
  53 0012 FFF7FEFF 		bl	LCD_Char_1_WriteControl
  54              	.LVL3:
  44:main.c        ****         LCD_Char_1_PrintString(str);
  55              		.loc 1 44 0
  56 0016 2800     		movs	r0, r5
  57 0018 FFF7FEFF 		bl	LCD_Char_1_PrintString
  58              	.LVL4:
  59 001c 32E0     		b	.L1
  60              	.LVL5:
  61              	.L8:
  45:main.c        ****     }
  46:main.c        ****     else
  47:main.c        ****     {
  48:main.c        ****         // –í–∏–≤–µ–¥–µ–Ω–Ω—è —Ä—è–¥–∫–∞ –∑ –∑–º—ñ—â–µ–Ω–Ω—è–º
  49:main.c        ****         while (shiftCount <= strLength)
  50:main.c        ****         {
  51:main.c        ****             LCD_Char_1_ClearDisplay();
  62              		.loc 1 51 0
  63 001e 0120     		movs	r0, #1
ARM GAS  C:\Users\oggih\AppData\Local\Temp\cccVRH60.s 			page 3


  64 0020 FFF7FEFF 		bl	LCD_Char_1_WriteControl
  65              	.LVL6:
  52:main.c        **** 
  53:main.c        ****             if (shiftDirection == 1)
  66              		.loc 1 53 0
  67 0024 012F     		cmp	r7, #1
  68 0026 07D1     		bne	.L4
  54:main.c        ****             {
  55:main.c        ****                 LCD_Char_1_Position(LCD_NAME_ROW, 0);
  69              		.loc 1 55 0
  70 0028 0021     		movs	r1, #0
  71 002a 0020     		movs	r0, #0
  72 002c FFF7FEFF 		bl	LCD_Char_1_Position
  73              	.LVL7:
  56:main.c        ****                 LCD_Char_1_PrintString(&str[shiftCount]);
  74              		.loc 1 56 0
  75 0030 2819     		adds	r0, r5, r4
  76 0032 FFF7FEFF 		bl	LCD_Char_1_PrintString
  77              	.LVL8:
  78 0036 07E0     		b	.L5
  79              	.L4:
  57:main.c        ****             }
  58:main.c        ****             else
  59:main.c        ****             {
  60:main.c        ****                 LCD_Char_1_Position(LCD_NAME_ROW, strLength - shiftCount);
  80              		.loc 1 60 0
  81 0038 311B     		subs	r1, r6, r4
  82 003a C9B2     		uxtb	r1, r1
  83 003c 0020     		movs	r0, #0
  84 003e FFF7FEFF 		bl	LCD_Char_1_Position
  85              	.LVL9:
  61:main.c        ****                 LCD_Char_1_PrintString(str);
  86              		.loc 1 61 0
  87 0042 2800     		movs	r0, r5
  88 0044 FFF7FEFF 		bl	LCD_Char_1_PrintString
  89              	.LVL10:
  90              	.L5:
  62:main.c        ****             }
  63:main.c        **** 
  64:main.c        ****             if (shiftDirection == 1)
  91              		.loc 1 64 0
  92 0048 012F     		cmp	r7, #1
  93 004a 04D1     		bne	.L6
  65:main.c        ****             {
  66:main.c        ****                 shiftCount++;
  94              		.loc 1 66 0
  95 004c 0134     		adds	r4, r4, #1
  96              	.LVL11:
  97 004e E4B2     		uxtb	r4, r4
  98              	.LVL12:
  67:main.c        ****                 if (shiftCount > strLength)
  99              		.loc 1 67 0
 100 0050 A642     		cmp	r6, r4
 101 0052 05D3     		bcc	.L10
 102 0054 07E0     		b	.L7
 103              	.L6:
  68:main.c        ****                 {
ARM GAS  C:\Users\oggih\AppData\Local\Temp\cccVRH60.s 			page 4


  69:main.c        ****                     shiftCount = 0;
  70:main.c        ****                 }
  71:main.c        ****             }
  72:main.c        ****             else
  73:main.c        ****             {
  74:main.c        ****                 if (shiftCount > 0)
 104              		.loc 1 74 0
 105 0056 002C     		cmp	r4, #0
 106 0058 04D0     		beq	.L11
  75:main.c        ****                 {
  76:main.c        ****                     shiftCount--;
 107              		.loc 1 76 0
 108 005a 013C     		subs	r4, r4, #1
 109              	.LVL13:
 110 005c E4B2     		uxtb	r4, r4
 111              	.LVL14:
 112 005e 02E0     		b	.L7
 113              	.L10:
  69:main.c        ****                 }
 114              		.loc 1 69 0
 115 0060 0024     		movs	r4, #0
 116              	.LVL15:
 117 0062 00E0     		b	.L7
 118              	.LVL16:
 119              	.L11:
  77:main.c        ****                 }
  78:main.c        ****                 else
  79:main.c        ****                 {
  80:main.c        ****                     shiftCount = strLength;
 120              		.loc 1 80 0
 121 0064 3400     		movs	r4, r6
 122              	.LVL17:
 123              	.L7:
  81:main.c        ****                 }
  82:main.c        ****             }
  83:main.c        ****             
  84:main.c        ****             LCD_Char_1_Position(1,0);
 124              		.loc 1 84 0
 125 0066 0021     		movs	r1, #0
 126 0068 0120     		movs	r0, #1
 127 006a FFF7FEFF 		bl	LCD_Char_1_Position
 128              	.LVL18:
  85:main.c        ****             LCD_Char_1_PrintString(surname);
 129              		.loc 1 85 0
 130 006e 0648     		ldr	r0, .L12
 131 0070 FFF7FEFF 		bl	LCD_Char_1_PrintString
 132              	.LVL19:
  86:main.c        ****             CyDelay(LCD_SHIFT_DELAY);
 133              		.loc 1 86 0
 134 0074 FA20     		movs	r0, #250
 135 0076 4000     		lsls	r0, r0, #1
 136 0078 FFF7FEFF 		bl	CyDelay
 137              	.LVL20:
 138 007c 00E0     		b	.L2
 139              	.LVL21:
 140              	.L9:
 141 007e 0024     		movs	r4, #0
ARM GAS  C:\Users\oggih\AppData\Local\Temp\cccVRH60.s 			page 5


 142              	.LVL22:
 143              	.L2:
  49:main.c        ****         {
 144              		.loc 1 49 0
 145 0080 B442     		cmp	r4, r6
 146 0082 CCD9     		bls	.L8
 147              	.LVL23:
 148              	.L1:
  87:main.c        ****         }
  88:main.c        ****     }
  89:main.c        **** }...
 149              		.loc 1 89 0
 150              		@ sp needed
 151              	.LVL24:
 152              	.LVL25:
 153 0084 F8BD     		pop	{r3, r4, r5, r6, r7, pc}
 154              	.L13:
 155 0086 C046     		.align	2
 156              	.L12:
 157 0088 00000000 		.word	.LANCHOR0
 158              		.cfi_endproc
 159              	.LFE34:
 160              		.size	LCD_ShiftString, .-LCD_ShiftString
 161              		.section	.text.main,"ax",%progbits
 162              		.align	2
 163              		.global	main
 164              		.code	16
 165              		.thumb_func
 166              		.type	main, %function
 167              	main:
 168              	.LFB33:
  18:main.c        **** {
 169              		.loc 1 18 0
 170              		.cfi_startproc
 171              		@ Volatile: function does not return.
 172              		@ args = 0, pretend = 0, frame = 0
 173              		@ frame_needed = 0, uses_anonymous_args = 0
 174 0000 70B5     		push	{r4, r5, r6, lr}
 175              		.cfi_def_cfa_offset 16
 176              		.cfi_offset 4, -16
 177              		.cfi_offset 5, -12
 178              		.cfi_offset 6, -8
 179              		.cfi_offset 14, -4
  19:main.c        ****     CyGlobalIntEnable; /* –í–∫–ª—é—á–µ–Ω–Ω—è –≥–ª–æ–±–∞–ª—å–Ω–∏—Ö –ø–µ—Ä–µ—Ä–∏–≤–∞–Ω—å. */
 180              		.loc 1 19 0
 181              		.syntax divided
 182              	@ 19 "main.c" 1
 183 0002 62B6     		CPSIE   i
 184              	@ 0 "" 2
  21:main.c        ****     setlocale(LC_CTYPE, "ukr");
 185              		.loc 1 21 0
 186              		.thumb
 187              		.syntax unified
 188 0004 0D49     		ldr	r1, .L16
 189 0006 0220     		movs	r0, #2
 190 0008 FFF7FEFF 		bl	setlocale
 191              	.LVL26:
ARM GAS  C:\Users\oggih\AppData\Local\Temp\cccVRH60.s 			page 6


  23:main.c        ****     LCD_Char_1_Start(); // –Ü–Ω—ñ—Ü—ñ–∞–ª—ñ–∑–∞—Ü—ñ—è –¥–∏—Å–ø–ª–µ—é LCD
 192              		.loc 1 23 0
 193 000c FFF7FEFF 		bl	LCD_Char_1_Start
 194              	.LVL27:
 195              	.L15:
  27:main.c        ****     LCD_Char_1_Position(0,0);
 196              		.loc 1 27 0 discriminator 1
 197 0010 0021     		movs	r1, #0
 198 0012 0020     		movs	r0, #0
 199 0014 FFF7FEFF 		bl	LCD_Char_1_Position
 200              	.LVL28:
  28:main.c        ****     LCD_Char_1_PrintString(name);
 201              		.loc 1 28 0 discriminator 1
 202 0018 094D     		ldr	r5, .L16+4
 203 001a 2C00     		movs	r4, r5
 204 001c 0C34     		adds	r4, r4, #12
 205 001e 2000     		movs	r0, r4
 206 0020 FFF7FEFF 		bl	LCD_Char_1_PrintString
 207              	.LVL29:
  29:main.c        ****     LCD_Char_1_Position(1,0);
 208              		.loc 1 29 0 discriminator 1
 209 0024 0021     		movs	r1, #0
 210 0026 0120     		movs	r0, #1
 211 0028 FFF7FEFF 		bl	LCD_Char_1_Position
 212              	.LVL30:
  30:main.c        ****     LCD_Char_1_PrintString(surname);
 213              		.loc 1 30 0 discriminator 1
 214 002c 2800     		movs	r0, r5
 215 002e FFF7FEFF 		bl	LCD_Char_1_PrintString
 216              	.LVL31:
  31:main.c        ****     LCD_ShiftString(name,1);
 217              		.loc 1 31 0 discriminator 1
 218 0032 0121     		movs	r1, #1
 219 0034 2000     		movs	r0, r4
 220 0036 FFF7FEFF 		bl	LCD_ShiftString
 221              	.LVL32:
 222 003a E9E7     		b	.L15
 223              	.L17:
 224              		.align	2
 225              	.L16:
 226 003c 00000000 		.word	.LC1
 227 0040 00000000 		.word	.LANCHOR0
 228              		.cfi_endproc
 229              	.LFE33:
 230              		.size	main, .-main
 231              		.global	surname
 232              		.global	name
 233              		.data
 234              		.align	2
 235              		.set	.LANCHOR0,. + 0
 236              		.type	surname, %object
 237              		.size	surname, 10
 238              	surname:
 239 0000 50657472 		.ascii	"Petrashek\000"
 239      61736865 
 239      6B00
 240 000a 0000     		.space	2
ARM GAS  C:\Users\oggih\AppData\Local\Temp\cccVRH60.s 			page 7


 241              		.type	name, %object
 242              		.size	name, 10
 243              	name:
 244 000c 566F6C6F 		.ascii	"Volodimir\000"
 244      64696D69 
 244      7200
 245              		.section	.rodata.str1.4,"aMS",%progbits,1
 246              		.align	2
 247              	.LC1:
 248 0000 756B7200 		.ascii	"ukr\000"
 249              		.text
 250              	.Letext0:
 251              		.file 2 "c:\\program files (x86)\\cypress\\psoc creator\\4.4\\psoc creator\\import\\gnu\\arm\\5.4.
 252              		.file 3 "c:\\program files (x86)\\cypress\\psoc creator\\4.4\\psoc creator\\import\\gnu\\arm\\5.4.
 253              		.file 4 "c:\\program files (x86)\\cypress\\psoc creator\\4.4\\psoc creator\\import\\gnu\\arm\\5.4.
 254              		.file 5 "Generated_Source\\PSoC4/LCD_Char_1.h"
 255              		.file 6 "Generated_Source\\PSoC4/CyLib.h"
 256              		.file 7 "c:\\program files (x86)\\cypress\\psoc creator\\4.4\\psoc creator\\import\\gnu\\arm\\5.4.